target datalayout = "e-m:e-p270:32:32-p271:32:32-p272:64:64-i64:64-i128:128-f80:128-n8:16:32:64-S128"
target triple = "x86_64-pc-linux-gnu"

%struct.PREDICATELOCKTARGETTAG = type { i32, i32, i32, i32 }
%union.LWLockPadded = type { %struct.LWLock, [112 x i8] }
%struct.LWLock = type { i16, %struct.pg_atomic_uint32, %struct.proclist_head }
%struct.pg_atomic_uint32 = type { i32 }
%struct.proclist_head = type { i32, i32 }
%struct.PredXactListData = type { %struct.dlist_head, %struct.dlist_head, i32, i32, i32, i64, i64, i64, ptr, ptr }
%struct.dlist_head = type { %struct.dlist_node }
%struct.dlist_node = type { ptr, ptr }
%struct.RelationData = type { %struct.RelFileLocator, ptr, i32, i32, i8, i8, i8, i8, i8, i32, i32, i32, i32, ptr, ptr, i32, %struct.LockInfoData, ptr, ptr, ptr, ptr, ptr, i8, ptr, ptr, ptr, ptr, ptr, ptr, i32, ptr, i8, ptr, ptr, i32, i8, i32, ptr, i8, ptr, ptr, ptr, ptr, ptr, ptr, ptr, i32, ptr, ptr, ptr, ptr, ptr, ptr, ptr, ptr, ptr, ptr, ptr, ptr, ptr, ptr, ptr, ptr, ptr, ptr, ptr, i32, i8, ptr }
%struct.RelFileLocator = type { i32, i32, i32 }
%struct.LockInfoData = type { %struct.LockRelId }
%struct.LockRelId = type { i32, i32 }
%struct.FormData_pg_class = type { i32, %struct.nameData, i32, i32, i32, i32, i32, i32, i32, i32, float, i32, i32, i8, i8, i8, i8, i16, i16, i8, i8, i8, i8, i8, i8, i8, i8, i32, i32, i32 }
%struct.nameData = type { [64 x i8] }

@MainLWLockArray = external global ptr, align 8
@PredXact = internal global ptr null, align 8

; Function Attrs: nounwind uwtable
define internal zeroext i1 @GetParentPredicateLockTag(ptr noundef %0, ptr noundef %1) #0 {
  %3 = alloca i1, align 1
  %4 = alloca ptr, align 8
  %5 = alloca ptr, align 8
  store ptr %0, ptr %4, align 8
  store ptr %1, ptr %5, align 8
  %6 = load ptr, ptr %4, align 8
  %7 = getelementptr inbounds nuw %struct.PREDICATELOCKTARGETTAG, ptr %6, i32 0, i32 3
  %8 = load i32, ptr %7, align 4
  %9 = icmp ne i32 %8, 0
  br i1 %9, label %10, label %11

10:                                               ; preds = %2
  br label %17

11:                                               ; preds = %2
  %12 = load ptr, ptr %4, align 8
  %13 = getelementptr inbounds nuw %struct.PREDICATELOCKTARGETTAG, ptr %12, i32 0, i32 2
  %14 = load i32, ptr %13, align 4
  %15 = icmp ne i32 %14, -1
  %16 = select i1 %15, i32 1, i32 0
  br label %17

17:                                               ; preds = %11, %10
  %18 = phi i32 [ 2, %10 ], [ %16, %11 ]
  switch i32 %18, label %53 [
    i32 0, label %19
    i32 1, label %20
    i32 2, label %35
  ]

19:                                               ; preds = %17
  store i1 false, ptr %3, align 1
  br label %54

20:                                               ; preds = %17
  %21 = load ptr, ptr %4, align 8
  %22 = getelementptr inbounds nuw %struct.PREDICATELOCKTARGETTAG, ptr %21, i32 0, i32 0
  %23 = load i32, ptr %22, align 4
  %24 = load ptr, ptr %5, align 8
  %25 = getelementptr inbounds nuw %struct.PREDICATELOCKTARGETTAG, ptr %24, i32 0, i32 0
  store i32 %23, ptr %25, align 4
  %26 = load ptr, ptr %4, align 8
  %27 = getelementptr inbounds nuw %struct.PREDICATELOCKTARGETTAG, ptr %26, i32 0, i32 1
  %28 = load i32, ptr %27, align 4
  %29 = load ptr, ptr %5, align 8
  %30 = getelementptr inbounds nuw %struct.PREDICATELOCKTARGETTAG, ptr %29, i32 0, i32 1
  store i32 %28, ptr %30, align 4
  %31 = load ptr, ptr %5, align 8
  %32 = getelementptr inbounds nuw %struct.PREDICATELOCKTARGETTAG, ptr %31, i32 0, i32 2
  store i32 -1, ptr %32, align 4
  %33 = load ptr, ptr %5, align 8
  %34 = getelementptr inbounds nuw %struct.PREDICATELOCKTARGETTAG, ptr %33, i32 0, i32 3
  store i32 0, ptr %34, align 4
  store i1 true, ptr %3, align 1
  br label %54

35:                                               ; preds = %17
  %36 = load ptr, ptr %4, align 8
  %37 = getelementptr inbounds nuw %struct.PREDICATELOCKTARGETTAG, ptr %36, i32 0, i32 0
  %38 = load i32, ptr %37, align 4
  %39 = load ptr, ptr %5, align 8
  %40 = getelementptr inbounds nuw %struct.PREDICATELOCKTARGETTAG, ptr %39, i32 0, i32 0
  store i32 %38, ptr %40, align 4
  %41 = load ptr, ptr %4, align 8
  %42 = getelementptr inbounds nuw %struct.PREDICATELOCKTARGETTAG, ptr %41, i32 0, i32 1
  %43 = load i32, ptr %42, align 4
  %44 = load ptr, ptr %5, align 8
  %45 = getelementptr inbounds nuw %struct.PREDICATELOCKTARGETTAG, ptr %44, i32 0, i32 1
  store i32 %43, ptr %45, align 4
  %46 = load ptr, ptr %4, align 8
  %47 = getelementptr inbounds nuw %struct.PREDICATELOCKTARGETTAG, ptr %46, i32 0, i32 2
  %48 = load i32, ptr %47, align 4
  %49 = load ptr, ptr %5, align 8
  %50 = getelementptr inbounds nuw %struct.PREDICATELOCKTARGETTAG, ptr %49, i32 0, i32 2
  store i32 %48, ptr %50, align 4
  %51 = load ptr, ptr %5, align 8
  %52 = getelementptr inbounds nuw %struct.PREDICATELOCKTARGETTAG, ptr %51, i32 0, i32 3
  store i32 0, ptr %52, align 4
  store i1 true, ptr %3, align 1
  br label %54

53:                                               ; preds = %17
  store i1 false, ptr %3, align 1
  br label %54

54:                                               ; preds = %53, %35, %20, %19
  %55 = load i1, ptr %3, align 1
  ret i1 %55
}

; Function Attrs: inlinehint nounwind uwtable
define internal zeroext i1 @PredicateLockingNeededForRelation(ptr noundef %0) #3 {
  %2 = alloca ptr, align 8
  store ptr %0, ptr %2, align 8
  %3 = load ptr, ptr %2, align 8
  %4 = getelementptr inbounds nuw %struct.RelationData, ptr %3, i32 0, i32 15
  %5 = load i32, ptr %4, align 8
  %6 = icmp ult i32 %5, 12000
  br i1 %6, label %15, label %7

7:                                                ; preds = %1
  %8 = load ptr, ptr %2, align 8
  %9 = getelementptr inbounds nuw %struct.RelationData, ptr %8, i32 0, i32 13
  %10 = load ptr, ptr %9, align 8
  %11 = getelementptr inbounds nuw %struct.FormData_pg_class, ptr %10, i32 0, i32 15
  %12 = load i8, ptr %11, align 2
  %13 = sext i8 %12 to i32
  %14 = icmp eq i32 %13, 116
  br label %15

15:                                               ; preds = %7, %1
  %16 = phi i1 [ true, %1 ], [ %14, %7 ]
  %17 = xor i1 %16, true
  ret i1 %17
}

; Function Attrs: nounwind uwtable
define dso_local void @PredicateLockPageSplit(ptr noundef %0, i32 noundef %1, i32 noundef %2) #0 {
  %4 = alloca ptr, align 8
  %5 = alloca i32, align 4
  %6 = alloca i32, align 4
  %7 = alloca %struct.PREDICATELOCKTARGETTAG, align 4
  %8 = alloca %struct.PREDICATELOCKTARGETTAG, align 4
  %9 = alloca i8, align 1
  %10 = alloca i32, align 4
  store ptr %0, ptr %4, align 8
  store i32 %1, ptr %5, align 4
  store i32 %2, ptr %6, align 4
  call void @llvm.lifetime.start.p0(i64 16, ptr %7) #10
  call void @llvm.lifetime.start.p0(i64 16, ptr %8) #10
  call void @llvm.lifetime.start.p0(i64 1, ptr %9) #10
  %11 = load ptr, ptr @PredXact, align 8
  %12 = getelementptr inbounds nuw %struct.PredXactListData, ptr %11, i32 0, i32 2
  %13 = load i32, ptr %12, align 8
  %14 = icmp ne i32 %13, 0
  br i1 %14, label %16, label %15

15:                                               ; preds = %3
  store i32 1, ptr %10, align 4
  br label %76

16:                                               ; preds = %3
  %17 = load ptr, ptr %4, align 8
  %18 = call zeroext i1 @PredicateLockingNeededForRelation(ptr noundef %17)
  br i1 %18, label %20, label %19

19:                                               ; preds = %16
  store i32 1, ptr %10, align 4
  br label %76

20:                                               ; preds = %16
  %21 = load ptr, ptr %4, align 8
  %22 = getelementptr inbounds nuw %struct.RelationData, ptr %21, i32 0, i32 0
  %23 = getelementptr inbounds nuw %struct.RelFileLocator, ptr %22, i32 0, i32 1
  %24 = load i32, ptr %23, align 4
  %25 = getelementptr inbounds nuw %struct.PREDICATELOCKTARGETTAG, ptr %7, i32 0, i32 0
  store i32 %24, ptr %25, align 4
  %26 = load ptr, ptr %4, align 8
  %27 = getelementptr inbounds nuw %struct.RelationData, ptr %26, i32 0, i32 15
  %28 = load i32, ptr %27, align 8
  %29 = getelementptr inbounds nuw %struct.PREDICATELOCKTARGETTAG, ptr %7, i32 0, i32 1
  store i32 %28, ptr %29, align 4
  %30 = load i32, ptr %5, align 4
  %31 = getelementptr inbounds nuw %struct.PREDICATELOCKTARGETTAG, ptr %7, i32 0, i32 2
  store i32 %30, ptr %31, align 4
  %32 = getelementptr inbounds nuw %struct.PREDICATELOCKTARGETTAG, ptr %7, i32 0, i32 3
  store i32 0, ptr %32, align 4
  %33 = load ptr, ptr %4, align 8
  %34 = getelementptr inbounds nuw %struct.RelationData, ptr %33, i32 0, i32 0
  %35 = getelementptr inbounds nuw %struct.RelFileLocator, ptr %34, i32 0, i32 1
  %36 = load i32, ptr %35, align 4
  %37 = getelementptr inbounds nuw %struct.PREDICATELOCKTARGETTAG, ptr %8, i32 0, i32 0
  store i32 %36, ptr %37, align 4
  %38 = load ptr, ptr %4, align 8
  %39 = getelementptr inbounds nuw %struct.RelationData, ptr %38, i32 0, i32 15
  %40 = load i32, ptr %39, align 8
  %41 = getelementptr inbounds nuw %struct.PREDICATELOCKTARGETTAG, ptr %8, i32 0, i32 1
  store i32 %40, ptr %41, align 4
  %42 = load i32, ptr %6, align 4
  %43 = getelementptr inbounds nuw %struct.PREDICATELOCKTARGETTAG, ptr %8, i32 0, i32 2
  store i32 %42, ptr %43, align 4
  %44 = getelementptr inbounds nuw %struct.PREDICATELOCKTARGETTAG, ptr %8, i32 0, i32 3
  store i32 0, ptr %44, align 4
  %45 = load ptr, ptr @MainLWLockArray, align 8
  %46 = getelementptr inbounds %union.LWLockPadded, ptr %45, i64 30
  %47 = call zeroext i1 @LWLockAcquire(ptr noundef %46, i32 noundef 0)
  %48 = getelementptr inbounds nuw { i64, i64 }, ptr %7, i32 0, i32 0
  %49 = load i64, ptr %48, align 4
  %50 = getelementptr inbounds nuw { i64, i64 }, ptr %7, i32 0, i32 1
  %51 = load i64, ptr %50, align 4
  %52 = getelementptr inbounds nuw { i64, i64 }, ptr %8, i32 0, i32 0
  %53 = load i64, ptr %52, align 4
  %54 = getelementptr inbounds nuw { i64, i64 }, ptr %8, i32 0, i32 1
  %55 = load i64, ptr %54, align 4
  %56 = call zeroext i1 @TransferPredicateLocksToNewTarget(i64 %49, i64 %51, i64 %53, i64 %55, i1 noundef zeroext false)
  %57 = zext i1 %56 to i8
  store i8 %57, ptr %9, align 1
  %58 = load i8, ptr %9, align 1, !range !4, !noundef !5
  %59 = trunc i8 %58 to i1
  br i1 %59, label %73, label %60

60:                                               ; preds = %20
  %61 = call zeroext i1 @GetParentPredicateLockTag(ptr noundef %7, ptr noundef %8)
  %62 = zext i1 %61 to i8
  store i8 %62, ptr %9, align 1
  %63 = getelementptr inbounds nuw { i64, i64 }, ptr %7, i32 0, i32 0
  %64 = load i64, ptr %63, align 4
  %65 = getelementptr inbounds nuw { i64, i64 }, ptr %7, i32 0, i32 1
  %66 = load i64, ptr %65, align 4
  %67 = getelementptr inbounds nuw { i64, i64 }, ptr %8, i32 0, i32 0
  %68 = load i64, ptr %67, align 4
  %69 = getelementptr inbounds nuw { i64, i64 }, ptr %8, i32 0, i32 1
  %70 = load i64, ptr %69, align 4
  %71 = call zeroext i1 @TransferPredicateLocksToNewTarget(i64 %64, i64 %66, i64 %68, i64 %70, i1 noundef zeroext true)
  %72 = zext i1 %71 to i8
  store i8 %72, ptr %9, align 1
  br label %73

73:                                               ; preds = %60, %20
  %74 = load ptr, ptr @MainLWLockArray, align 8
  %75 = getelementptr inbounds %union.LWLockPadded, ptr %74, i64 30
  call void @LWLockRelease(ptr noundef %75)
  store i32 0, ptr %10, align 4
  br label %76

76:                                               ; preds = %73, %19, %15
  call void @llvm.lifetime.end.p0(i64 1, ptr %9) #10
  call void @llvm.lifetime.end.p0(i64 16, ptr %8) #10
  call void @llvm.lifetime.end.p0(i64 16, ptr %7) #10
  %77 = load i32, ptr %10, align 4
  switch i32 %77, label %79 [
    i32 0, label %78
    i32 1, label %78
  ]

78:                                               ; preds = %76, %76
  ret void

79:                                               ; preds = %76
  unreachable
}

; Function Attrs: nounwind uwtable
define dso_local void @PredicateLockPageCombine(ptr noundef %0, i32 noundef %1, i32 noundef %2) #0 {
  %4 = alloca ptr, align 8
  %5 = alloca i32, align 4
  %6 = alloca i32, align 4
  store ptr %0, ptr %4, align 8
  store i32 %1, ptr %5, align 4
  store i32 %2, ptr %6, align 4
  %7 = load ptr, ptr %4, align 8
  %8 = load i32, ptr %5, align 4
  %9 = load i32, ptr %6, align 4
  call void @PredicateLockPageSplit(ptr noundef %7, i32 noundef %8, i32 noundef %9)
  ret void
}